target datalayout = "e-m:e-p270:32:32-p271:32:32-p272:64:64-i64:64-i128:128-f80:128-n8:16:32:64-S128"
target triple = "x86_64-pc-linux-gnu"

@.str = private unnamed_addr constant [32 x i8] c"../openssl/test/testutil/load.c\00", align 1
@.str.1 = private unnamed_addr constant [5 x i8] c"file\00", align 1
@.str.2 = private unnamed_addr constant [28 x i8] c"bio = BIO_new(BIO_s_file())\00", align 1
@.str.3 = private unnamed_addr constant [29 x i8] c"BIO_read_filename(bio, file)\00", align 1
@.str.4 = private unnamed_addr constant [2 x i8] c"0\00", align 1
@.str.5 = private unnamed_addr constant [33 x i8] c"cert = X509_new_ex(libctx, NULL)\00", align 1
@.str.6 = private unnamed_addr constant [49 x i8] c"cert = PEM_read_bio_X509(bio, &cert, NULL, NULL)\00", align 1

; Function Attrs: nounwind uwtable
define ptr @load_cert_pem(ptr noundef %0, ptr noundef %1) #0 {
  %3 = alloca ptr, align 8
  %4 = alloca ptr, align 8
  %5 = alloca ptr, align 8
  %6 = alloca ptr, align 8
  %7 = alloca ptr, align 8
  %8 = alloca i32, align 4
  store ptr %0, ptr %4, align 8, !tbaa !3
  store ptr %1, ptr %5, align 8, !tbaa !8
  call void @llvm.lifetime.start.p0(i64 8, ptr %6) #4
  store ptr null, ptr %6, align 8, !tbaa !10
  call void @llvm.lifetime.start.p0(i64 8, ptr %7) #4
  store ptr null, ptr %7, align 8, !tbaa !12
  %9 = load ptr, ptr %4, align 8, !tbaa !3
  %10 = call i32 @test_ptr(ptr noundef @.str, i32 noundef 23, ptr noundef @.str.1, ptr noundef %9)
  %11 = icmp ne i32 %10, 0
  br i1 %11, label %12, label %17

12:                                               ; preds = %2
  %13 = call ptr @BIO_s_file()
  %14 = call ptr @BIO_new(ptr noundef %13)
  store ptr %14, ptr %7, align 8, !tbaa !12
  %15 = call i32 @test_ptr(ptr noundef @.str, i32 noundef 23, ptr noundef @.str.2, ptr noundef %14)
  %16 = icmp ne i32 %15, 0
  br i1 %16, label %18, label %17

17:                                               ; preds = %12, %2
  store ptr null, ptr %3, align 8
  store i32 1, ptr %8, align 4
  br label %38

18:                                               ; preds = %12
  %19 = load ptr, ptr %7, align 8, !tbaa !12
  %20 = load ptr, ptr %4, align 8, !tbaa !3
  %21 = call i64 @BIO_ctrl(ptr noundef %19, i32 noundef 108, i64 noundef 3, ptr noundef %20)
  %22 = trunc i64 %21 to i32
  %23 = call i32 @test_int_gt(ptr noundef @.str, i32 noundef 25, ptr noundef @.str.3, ptr noundef @.str.4, i32 noundef %22, i32 noundef 0)
  %24 = icmp ne i32 %23, 0
  br i1 %24, label %25, label %34

25:                                               ; preds = %18
  %26 = load ptr, ptr %5, align 8, !tbaa !8
  %27 = call ptr @X509_new_ex(ptr noundef %26, ptr noundef null)
  store ptr %27, ptr %6, align 8, !tbaa !10
  %28 = call i32 @test_ptr(ptr noundef @.str, i32 noundef 26, ptr noundef @.str.5, ptr noundef %27)
  %29 = icmp ne i32 %28, 0
  br i1 %29, label %30, label %34

30:                                               ; preds = %25
  %31 = load ptr, ptr %7, align 8, !tbaa !12
  %32 = call ptr @PEM_read_bio_X509(ptr noundef %31, ptr noundef %6, ptr noundef null, ptr noundef null)
  store ptr %32, ptr %6, align 8, !tbaa !10
  %33 = call i32 @test_ptr(ptr noundef @.str, i32 noundef 27, ptr noundef @.str.6, ptr noundef %32)
  br label %34

34:                                               ; preds = %30, %25, %18
  %35 = load ptr, ptr %7, align 8, !tbaa !12
  %36 = call i32 @BIO_free(ptr noundef %35)
  %37 = load ptr, ptr %6, align 8, !tbaa !10
  store ptr %37, ptr %3, align 8
  store i32 1, ptr %8, align 4
  br label %38

38:                                               ; preds = %34, %17
  call void @llvm.lifetime.end.p0(i64 8, ptr %7) #4
  call void @llvm.lifetime.end.p0(i64 8, ptr %6) #4
  %39 = load ptr, ptr %3, align 8
  ret ptr %39
}