; Function Attrs: nounwind uwtable
define ptr @load_cert_pem(ptr noundef %0, ptr noundef %1) local_unnamed_addr #0 {
  %3 = alloca ptr, align 8
  call void @llvm.lifetime.start.p0(i64 8, ptr nonnull %3) #3
  store ptr null, ptr %3, align 8, !tbaa !3
  %4 = tail call i32 @test_ptr(ptr noundef nonnull @.str, i32 noundef 23, ptr noundef nonnull @.str.1, ptr noundef %0) #3
  %.not = icmp eq i32 %4, 0
  br i1 %.not, label %22, label %5

5:                                                ; preds = %2
  %6 = tail call ptr @BIO_s_file() #3
  %7 = tail call ptr @BIO_new(ptr noundef %6) #3
  %8 = tail call i32 @test_ptr(ptr noundef nonnull @.str, i32 noundef 23, ptr noundef nonnull @.str.2, ptr noundef %7) #3
  %.not7 = icmp eq i32 %8, 0
  br i1 %.not7, label %22, label %9

9:                                                ; preds = %5
  %10 = tail call i64 @BIO_ctrl(ptr noundef %7, i32 noundef 108, i64 noundef 3, ptr noundef %0) #3
  %11 = trunc i64 %10 to i32
  %12 = tail call i32 @test_int_gt(ptr noundef nonnull @.str, i32 noundef 25, ptr noundef nonnull @.str.3, ptr noundef nonnull @.str.4, i32 noundef %11, i32 noundef 0) #3
  %.not8 = icmp eq i32 %12, 0
  br i1 %.not8, label %19, label %13

13:                                               ; preds = %9
  %14 = tail call ptr @X509_new_ex(ptr noundef %1, ptr noundef null) #3
  store ptr %14, ptr %3, align 8, !tbaa !3
  %15 = tail call i32 @test_ptr(ptr noundef nonnull @.str, i32 noundef 26, ptr noundef nonnull @.str.5, ptr noundef %14) #3
  %.not9 = icmp eq i32 %15, 0
  br i1 %.not9, label %19, label %16

16:                                               ; preds = %13
  %17 = call ptr @PEM_read_bio_X509(ptr noundef %7, ptr noundef nonnull %3, ptr noundef null, ptr noundef null) #3
  store ptr %17, ptr %3, align 8, !tbaa !3
  %18 = call i32 @test_ptr(ptr noundef nonnull @.str, i32 noundef 27, ptr noundef nonnull @.str.6, ptr noundef %17) #3
  br label %19

19:                                               ; preds = %16, %13, %9
  %20 = call i32 @BIO_free(ptr noundef %7) #3
  %21 = load ptr, ptr %3, align 8, !tbaa !3
  br label %22

22:                                               ; preds = %2, %5, %19
  %.0 = phi ptr [ %21, %19 ], [ null, %5 ], [ null, %2 ]
  call void @llvm.lifetime.end.p0(i64 8, ptr nonnull %3) #3
  ret ptr %.0
}